target datalayout = "e-m:e-p270:32:32-p271:32:32-p272:64:64-i64:64-i128:128-f80:128-n8:16:32:64-S128"
target triple = "x86_64-pc-linux-gnu"

%struct.randpkt_example = type { ptr, ptr, i32, i32, ptr, i32, ptr, i32, ptr, ptr, i32 }

@stderr = external global ptr, align 8
@.str = private unnamed_addr constant [66 x i8] c"randpkt: Internal error. Type %d has no entry in examples table.\0A\00", align 1

; Function Attrs: null_pointer_is_valid sspstrong uwtable
define hidden ptr @randpkt_find_example(i32 noundef %0) #1 {
  %2 = alloca ptr, align 8
  %3 = alloca i32, align 4
  %4 = alloca i32, align 4
  %5 = alloca i32, align 4
  %6 = alloca i32, align 4
  store i32 %0, ptr %3, align 4
  call void @llvm.lifetime.start.p0(i64 4, ptr %4) #13
  store i32 23, ptr %4, align 4
  call void @llvm.lifetime.start.p0(i64 4, ptr %5) #13
  store i32 0, ptr %5, align 4
  br label %7

7:                                                ; preds = %24, %1
  %8 = load i32, ptr %5, align 4
  %9 = load i32, ptr %4, align 4
  %10 = icmp slt i32 %8, %9
  br i1 %10, label %11, label %27

11:                                               ; preds = %7
  %12 = load i32, ptr %5, align 4
  %13 = sext i32 %12 to i64
  %14 = getelementptr [23 x %struct.randpkt_example], ptr @examples, i64 0, i64 %13
  %15 = getelementptr inbounds nuw %struct.randpkt_example, ptr %14, i32 0, i32 2
  %16 = load i32, ptr %15, align 16
  %17 = load i32, ptr %3, align 4
  %18 = icmp eq i32 %16, %17
  br i1 %18, label %19, label %23

19:                                               ; preds = %11
  %20 = load i32, ptr %5, align 4
  %21 = sext i32 %20 to i64
  %22 = getelementptr [23 x %struct.randpkt_example], ptr @examples, i64 0, i64 %21
  store ptr %22, ptr %2, align 8
  store i32 1, ptr %6, align 4
  br label %31

23:                                               ; preds = %11
  br label %24

24:                                               ; preds = %23
  %25 = load i32, ptr %5, align 4
  %26 = add i32 %25, 1
  store i32 %26, ptr %5, align 4
  br label %7, !llvm.loop !6

27:                                               ; preds = %7
  %28 = load ptr, ptr @stderr, align 8
  %29 = load i32, ptr %3, align 4
  %30 = call i32 (ptr, i32, ptr, ...) @__fprintf_chk(ptr noundef %28, i32 noundef 2, ptr noundef @.str, i32 noundef %29)
  store ptr null, ptr %2, align 8
  store i32 1, ptr %6, align 4
  br label %31

31:                                               ; preds = %27, %19
  call void @llvm.lifetime.end.p0(i64 4, ptr %5) #13
  call void @llvm.lifetime.end.p0(i64 4, ptr %4) #13
  %32 = load ptr, ptr %2, align 8
  ret ptr %32
}