; Function Attrs: null_pointer_is_valid sspstrong uwtable
define hidden ptr @randpkt_find_example(i32 noundef %0) local_unnamed_addr #1 {
  br label %3

2:                                                ; preds = %3
  %indvars.iv.next = add nuw nsw i64 %indvars.iv, 1
  %exitcond.not = icmp eq i64 %indvars.iv.next, 23
  br i1 %exitcond.not, label %8, label %3, !llvm.loop !6

3:                                                ; preds = %1, %2
  %indvars.iv = phi i64 [ 0, %1 ], [ %indvars.iv.next, %2 ]
  %4 = getelementptr [23 x %struct.randpkt_example], ptr @examples, i64 0, i64 %indvars.iv
  %5 = getelementptr inbounds nuw i8, ptr %4, i64 16
  %6 = load i32, ptr %5, align 16
  %7 = icmp eq i32 %6, %0
  br i1 %7, label %.loopexit, label %2

8:                                                ; preds = %2
  %9 = load ptr, ptr @stderr, align 8
  %10 = tail call i32 (ptr, i32, ptr, ...) @__fprintf_chk(ptr noundef %9, i32 noundef 2, ptr noundef nonnull @.str, i32 noundef %0)
  br label %.loopexit

.loopexit:                                        ; preds = %3, %8
  %.07 = phi ptr [ null, %8 ], [ %4, %3 ]
  ret ptr %.07
}